(iatt.resources.ResourceHandler
ResourceCacheHolder
p0
(dp1
S'profiles'
p2
(lp3
S'/opt/attng/profiles/dosa/tri-V9'
p4
aS'/opt/attng/profiles/V8Testing/vesTB-V8-LATEST-regression'
p5
aS'/opt/attng/profiles/V9Testing/rodTB-V9BASE-01'
p6
aS'/opt/attng/profiles/V8Testing/radTB-V8-EP6HFC'
p7
aS'/opt/attng/profiles/furjel/triTB-V9base'
p8
aS'/opt/attng/profiles/pakosova/radV9SP1-upgrade'
p9
aS'/opt/attng/profiles/herzog/testbed-mok-VX'
p10
aS'/opt/attng/profiles/veverka/vesTB-V9BASE-JV'
p11
aS'/opt/attng/profiles/V9Testing/UPP_V9BASE'
p12
aS'/opt/attng/profiles/vittek/lada_MP7_37_13'
p13
aS'/opt/attng/profiles/furjel/kupTB_V9SP1_UGA_SM'
p14
aS'/opt/attng/profiles/harmata/PHtestbed-V9Base02'
p15
aS'/opt/attng/profiles/lestan/zim-V9SP1'
p16
aS'/opt/attng/profiles/jakubcik/tar-V9SP1_2ADM'
p17
aS'/opt/attng/profiles/jakubcik/janci_MP8'
p18
aS'/opt/attng/profiles/person/TRI-MP7'
p19
aS'/opt/attng/profiles/harmata/PHtestbed-V9Base03'
p20
aS'/opt/attng/profiles/pakosova/radV9SP2-feature'
p21
aS'/opt/attng/profiles/chudjak/testbed-OT2'
p22
aS'/opt/attng/profiles/V9Testing/ladTB-V9SP2-fallback'
p23
aS'/opt/attng/profiles/person/SP2-tri03-person'
p24
aS'/opt/attng/profiles/bellanova/testbed-odi-V9'
p25
aS'/opt/attng/profiles/V9Testing/rodTB-V9SP1-01'
p26
aS'/opt/attng/profiles/V9Testing/rodTB-V9SP1-ADM'
p27
aS'/opt/attng/profiles/V9Testing/rodTB-V9SP1-TDI'
p28
aS'/opt/attng/profiles/V9Testing/UGA_V9SP1'
p29
aS'/opt/attng/profiles/V9Testing/UGA_V9SP1_SM'
p30
aS'/opt/attng/profiles/V9Testing/ramTB-V9SP1-dsa'
p31
aS'/opt/attng/profiles/macalak/perun-v9sp2'
p32
aS'/opt/attng/profiles/harmata/PHtestbed-V9Base01'
p33
aS'/opt/attng/profiles/polgar/tar_polgar_V9SP2'
p34
aS'/opt/attng/profiles/furjel/kupTB_V9SP2_UGA_SM'
p35
aS'/opt/attng/profiles/V9Testing/kupTB_V9SP2_UGA_SM'
p36
aS'/opt/attng/profiles/cerveny/mor_UGA_V9SP1'
p37
aS'/opt/attng/profiles/polgar/tar_polgar_V9SP2_UGA'
p38
aS'/opt/attng/profiles/lestan/zim-V9SP1-big'
p39
aS'/opt/attng/profiles/valovic/zim_valovic-V9SP1'
p40
aS'/opt/attng/profiles/jakubcik/janci-V9SP2-dsa'
p41
aS'/opt/attng/profiles/tomko/tar-tomko-V9SP2-big'
p42
aS'/opt/attng/profiles/tomko/mok-tomko-V9SP2'
p43
aS'/opt/attng/profiles/tomko/sva-tomko-V9SP2'
p44
aS'/opt/attng/profiles/tomko/sva-tomko-V9SP1'
p45
aS'/opt/attng/profiles/harmata/PH_TM'
p46
aS'/opt/attng/profiles/V9Testing/perTB-V9SP2-regression'
p47
aS'/opt/attng/profiles/V9Testing/perTB-V9SP2-ADM'
p48
aS'/opt/attng/profiles/V9Testing/rodTB_V9SP2_UGA_SM'
p49
aS'/opt/attng/profiles/V9Testing/UGA_V9SP2'
p50
aS'/opt/attng/profiles/V9Testing/ramTB-V9SP2-dsa'
p51
aS'/opt/attng/profiles/bielik/mokTB-V9SP2-bielik-DV8666'
p52
aS'/opt/attng/profiles/V9Testing/perTB-V9SP2-IPv6'
p53
aS'/opt/attng/profiles/V9Testing/rodTB-V9SP2-emergency'
p54
aS'/opt/attng/profiles/cerveny/morTB-V9SP1-Hotfix'
p55
aS'/opt/attng/profiles/jakubcik/janci_V9_SP2'
p56
aS'/opt/attng/profiles/dosa/str-V9SP1_UGA_SM'
p57
aS'/opt/attng/profiles/valovic/rad_valovic-V10'
p58
aS'/opt/attng/profiles/frank/rod_V9_golden'
p59
aS'/opt/attng/profiles/V10Testing/perTB-V10-regression'
p60
aS'/opt/attng/profiles/V10Testing/perTB-V10_p92-regression'
p61
asb.